target datalayout = "e-m:e-p270:32:32-p271:32:32-p272:64:64-i64:64-i128:128-f80:128-n8:16:32:64-S128"
target triple = "x86_64-pc-linux-gnu"

%"class.VM_Version::CpuidInfo" = type { i32, i32, i32, i32, %"union.VM_Version::StdCpuid1Eax", %"union.VM_Version::StdCpuid1Ebx", %"union.VM_Version::StdCpuid1Ecx", %"union.VM_Version::StdCpuid1Edx", %"union.VM_Version::DcpCpuid4Eax", %"union.VM_Version::DcpCpuid4Ebx", i32, i32, %"union.VM_Version::SefCpuid7Eax", %"union.VM_Version::SefCpuid7Ebx", %"union.VM_Version::SefCpuid7Ecx", %"union.VM_Version::SefCpuid7Edx", %"union.VM_Version::SefCpuid7SubLeaf1Eax", %"union.VM_Version::SefCpuid7SubLeaf1Edx", i32, %"union.VM_Version::TplCpuidBEbx", i32, i32, i32, %"union.VM_Version::TplCpuidBEbx", i32, i32, i32, %"union.VM_Version::TplCpuidBEbx", i32, i32, i32, i32, i32, i32, i32, i32, %"union.VM_Version::ExtCpuid1Ecx", %"union.VM_Version::ExtCpuid1Edx", i32, i32, i32, i32, i32, i32, i32, i32, i32, i32, i32, i32, i32, i32, %"union.VM_Version::ExtCpuid5Ex", %"union.VM_Version::ExtCpuid5Ex", i32, i32, i32, %"union.VM_Version::ExtCpuid7Edx", i32, i32, %"union.VM_Version::ExtCpuid8Ecx", i32, i32, %"union.VM_Version::ExtCpuid1EEbx", i32, i32, %"union.VM_Version::XemXcr0Eax", i32, [32 x i32], [64 x i32], [2 x i64] }
%"union.VM_Version::StdCpuid1Eax" = type { i32 }
%"union.VM_Version::StdCpuid1Ebx" = type { i32 }
%"union.VM_Version::StdCpuid1Ecx" = type { i32 }
%"union.VM_Version::StdCpuid1Edx" = type { i32 }
%"union.VM_Version::DcpCpuid4Eax" = type { i32 }
%"union.VM_Version::DcpCpuid4Ebx" = type { i32 }
%"union.VM_Version::SefCpuid7Eax" = type { i32 }
%"union.VM_Version::SefCpuid7Ebx" = type { i32 }
%"union.VM_Version::SefCpuid7Ecx" = type { i32 }
%"union.VM_Version::SefCpuid7Edx" = type { i32 }
%"union.VM_Version::SefCpuid7SubLeaf1Eax" = type { i32 }
%"union.VM_Version::SefCpuid7SubLeaf1Edx" = type { i32 }
%"union.VM_Version::TplCpuidBEbx" = type { i32 }
%"union.VM_Version::ExtCpuid1Ecx" = type { i32 }
%"union.VM_Version::ExtCpuid1Edx" = type { i32 }
%"union.VM_Version::ExtCpuid5Ex" = type { i32 }
%"union.VM_Version::ExtCpuid7Edx" = type { i32 }
%"union.VM_Version::ExtCpuid8Ecx" = type { i32 }
%"union.VM_Version::ExtCpuid1EEbx" = type { i32 }
%"union.VM_Version::XemXcr0Eax" = type { i32 }

@_ZN10VM_Version11_cpuid_infoE = hidden global %"class.VM_Version::CpuidInfo" zeroinitializer, align 8

; Function Attrs: mustprogress nounwind uwtable
define linkonce_odr hidden void @_ZNK10VM_Version9CpuidInfo21assert_is_initializedEv(ptr noundef nonnull align 8 dereferenceable(672) %0) #1 comdat align 2 {
  %2 = alloca ptr, align 8
  store ptr %0, ptr %2, align 8
  ret void
}

; Function Attrs: mustprogress nounwind uwtable
define linkonce_odr hidden noundef i32 @_ZNK10VM_Version9CpuidInfo19extended_cpu_familyEv(ptr noundef nonnull align 8 dereferenceable(672) %0) #1 comdat align 2 {
  %2 = alloca ptr, align 8
  %3 = alloca i32, align 4
  store ptr %0, ptr %2, align 8
  %4 = load ptr, ptr %2, align 8
  %5 = getelementptr inbounds %"class.VM_Version::CpuidInfo", ptr %4, i32 0, i32 4
  %6 = load i32, ptr %5, align 8
  %7 = lshr i32 %6, 8
  %8 = and i32 %7, 15
  store i32 %8, ptr %3, align 4
  %9 = getelementptr inbounds %"class.VM_Version::CpuidInfo", ptr %4, i32 0, i32 4
  %10 = load i32, ptr %9, align 8
  %11 = lshr i32 %10, 20
  %12 = and i32 %11, 255
  %13 = load i32, ptr %3, align 4
  %14 = add i32 %13, %12
  store i32 %14, ptr %3, align 4
  %15 = load i32, ptr %3, align 4
  ret i32 %15
}

; Function Attrs: mustprogress nounwind uwtable
define linkonce_odr hidden void @_ZN10VM_Version21assert_is_initializedEv() #1 comdat align 2 {
  call void @_ZNK10VM_Version9CpuidInfo21assert_is_initializedEv(ptr noundef nonnull align 8 dereferenceable(672) @_ZN10VM_Version11_cpuid_infoE)
  ret void
}

; Function Attrs: mustprogress nounwind uwtable
define linkonce_odr hidden noundef i32 @_ZNK10VM_Version9CpuidInfo18extended_cpu_modelEv(ptr noundef nonnull align 8 dereferenceable(672) %0) #1 comdat align 2 {
  %2 = alloca ptr, align 8
  %3 = alloca i32, align 4
  store ptr %0, ptr %2, align 8
  %4 = load ptr, ptr %2, align 8
  %5 = getelementptr inbounds %"class.VM_Version::CpuidInfo", ptr %4, i32 0, i32 4
  %6 = load i32, ptr %5, align 8
  %7 = lshr i32 %6, 4
  %8 = and i32 %7, 15
  store i32 %8, ptr %3, align 4
  %9 = getelementptr inbounds %"class.VM_Version::CpuidInfo", ptr %4, i32 0, i32 4
  %10 = load i32, ptr %9, align 8
  %11 = lshr i32 %10, 16
  %12 = and i32 %11, 15
  %13 = shl i32 %12, 4
  %14 = load i32, ptr %3, align 4
  %15 = or i32 %14, %13
  store i32 %15, ptr %3, align 4
  %16 = load i32, ptr %3, align 4
  ret i32 %16
}

; Function Attrs: mustprogress nounwind uwtable
define linkonce_odr hidden noundef i32 @_ZN10VM_Version19extended_cpu_familyEv() #1 comdat align 2 {
  %1 = call noundef i32 @_ZNK10VM_Version9CpuidInfo19extended_cpu_familyEv(ptr noundef nonnull align 8 dereferenceable(672) @_ZN10VM_Version11_cpuid_infoE)
  ret i32 %1
}

; Function Attrs: mustprogress nounwind uwtable
define linkonce_odr hidden noundef zeroext i1 @_ZN10VM_Version8is_intelEv() #1 comdat align 2 {
  call void @_ZN10VM_Version21assert_is_initializedEv()
  %1 = load i32, ptr getelementptr inbounds (%"class.VM_Version::CpuidInfo", ptr @_ZN10VM_Version11_cpuid_infoE, i32 0, i32 1), align 4
  %2 = icmp eq i32 %1, 1970169159
  ret i1 %2
}

; Function Attrs: mustprogress nounwind uwtable
define linkonce_odr hidden noundef i32 @_ZN10VM_Version18extended_cpu_modelEv() #1 comdat align 2 {
  %1 = call noundef i32 @_ZNK10VM_Version9CpuidInfo18extended_cpu_modelEv(ptr noundef nonnull align 8 dereferenceable(672) @_ZN10VM_Version11_cpuid_infoE)
  ret i32 %1
}

; Function Attrs: mustprogress nounwind uwtable
define linkonce_odr hidden noundef zeroext i1 @_ZN10VM_Version20is_intel_family_coreEv() #1 comdat align 2 {
  %1 = call noundef zeroext i1 @_ZN10VM_Version8is_intelEv()
  br i1 %1, label %2, label %5

2:                                                ; preds = %0
  %3 = call noundef i32 @_ZN10VM_Version19extended_cpu_familyEv()
  %4 = icmp eq i32 %3, 6
  br label %5

5:                                                ; preds = %2, %0
  %6 = phi i1 [ false, %0 ], [ %4, %2 ]
  ret i1 %6
}

; Function Attrs: mustprogress nounwind uwtable
define hidden noundef zeroext i1 @_ZN10VM_Version28is_intel_tsc_synched_at_initEv() #1 align 2 {
  %1 = alloca i1, align 1
  %2 = alloca i32, align 4
  %3 = call noundef zeroext i1 @_ZN10VM_Version20is_intel_family_coreEv()
  br i1 %3, label %4, label %19

4:                                                ; preds = %0
  %5 = call noundef i32 @_ZN10VM_Version18extended_cpu_modelEv()
  store i32 %5, ptr %2, align 4
  %6 = load i32, ptr %2, align 4
  %7 = icmp eq i32 %6, 26
  br i1 %7, label %17, label %8

8:                                                ; preds = %4
  %9 = load i32, ptr %2, align 4
  %10 = icmp eq i32 %9, 44
  br i1 %10, label %17, label %11

11:                                               ; preds = %8
  %12 = load i32, ptr %2, align 4
  %13 = icmp eq i32 %12, 45
  br i1 %13, label %17, label %14

14:                                               ; preds = %11
  %15 = load i32, ptr %2, align 4
  %16 = icmp eq i32 %15, 58
  br i1 %16, label %17, label %18

17:                                               ; preds = %14, %11, %8, %4
  store i1 true, ptr %1, align 1
  br label %20

18:                                               ; preds = %14
  br label %19

19:                                               ; preds = %18, %0
  store i1 false, ptr %1, align 1
  br label %20

20:                                               ; preds = %19, %17
  %21 = load i1, ptr %1, align 1
  ret i1 %21
}