; Function Attrs: mustprogress nofree norecurse nosync nounwind willreturn memory(read, argmem: none, inaccessiblemem: none) uwtable
define hidden noundef zeroext i1 @_ZN10VM_Version28is_intel_tsc_synched_at_initEv() local_unnamed_addr #3 align 2 {
  %1 = load i32, ptr getelementptr inbounds (i8, ptr @_ZN10VM_Version11_cpuid_infoE, i64 4), align 4
  %2 = icmp eq i32 %1, 1970169159
  br i1 %2, label %_ZN10VM_Version20is_intel_family_coreEv.exit, label %_ZN10VM_Version20is_intel_family_coreEv.exit.thread

_ZN10VM_Version20is_intel_family_coreEv.exit:     ; preds = %0
  %3 = load i32, ptr getelementptr inbounds (i8, ptr @_ZN10VM_Version11_cpuid_infoE, i64 16), align 8
  %4 = lshr i32 %3, 8
  %5 = and i32 %4, 15
  %6 = lshr i32 %3, 20
  %7 = and i32 %6, 255
  %8 = add nuw nsw i32 %5, %7
  %9 = icmp eq i32 %8, 6
  br i1 %9, label %10, label %_ZN10VM_Version20is_intel_family_coreEv.exit.thread

10:                                               ; preds = %_ZN10VM_Version20is_intel_family_coreEv.exit
  %11 = lshr i32 %3, 4
  %12 = and i32 %11, 15
  %13 = lshr i32 %3, 12
  %14 = and i32 %13, 240
  %15 = or disjoint i32 %12, %14
  %16 = icmp ult i32 %15, 59
  br i1 %16, label %switch.lookup, label %_ZN10VM_Version20is_intel_family_coreEv.exit.thread

switch.lookup:                                    ; preds = %10
  %switch.cast = zext nneg i32 %15 to i59
  %switch.downshift = lshr i59 -288177599526469632, %switch.cast
  %switch.masked = trunc i59 %switch.downshift to i1
  br label %_ZN10VM_Version20is_intel_family_coreEv.exit.thread

_ZN10VM_Version20is_intel_family_coreEv.exit.thread: ; preds = %_ZN10VM_Version20is_intel_family_coreEv.exit, %0, %10, %switch.lookup
  %.0 = phi i1 [ %switch.masked, %switch.lookup ], [ false, %10 ], [ false, %0 ], [ false, %_ZN10VM_Version20is_intel_family_coreEv.exit ]
  ret i1 %.0
}